Microsoft (R) Macro Assembler Version 6.11		    11/02/23 16:24:34
three.asm						     Page 1 - 1


				; code by fiv

				.model small
				.486

 = 0230				A0_M8259 equ 230h
 = 0231				A1_M8259 equ 231h

 = 0240				A0_S8259 equ 240h
 = 0241				A1_S8259 equ 241h

 = 0210				pa_8255 equ 210h
 = 0211				pb_8255 equ 211h
 = 0212				pc_8255 equ 212h
 = 0213				kz_8255 equ 213h

 0000				data segment
 0000 3F 06 5B 4F 66 6D		leds DB 3FH,06H,5BH,4FH,66H,6DH,7DH
       7D
 0007  07 7F 67					DB 07H,7FH,67H 
 000A 00				counter db 0
 000B 00				d0 db 0
 000C 00				d1 db 0
 000D				data ends

 0000				code segment
				assume cs:code, ds:data
 0000				start:
 0000  B8 ---- R			mov ax, data
three.asm(28): warning A4012: line number information for segment without class 'CODE' : code
 0003  8E D8				mov ds, ax
					
 0005  E8 0011				call init8255
 0008  E8 0015				call initM8259
 000B  E8 0028				call initS8259
 000E  FA				cli
 000F  E8 0062				call setIntVector
 0012  FB				sti
 0013				again:
 0013  E8 007E				call display
 0016  EB FB				jmp again
 0018  F4				hlt
					
 0019				init8255 proc
 0019  BA 0213				mov dx, kz_8255
 001C  B0 81				mov al,10000001b;
 001E  EE				out dx, al
 001F  C3				ret
 0020				init8255 endp
					
 0020				initM8259 proc
 0020  BA 0230				mov dx, A0_M8259 ;icw1
 0023  B0 11				mov al, 11h
 0025  EE				out dx, al
					
 0026  BA 0231				mov dx, A1_M8259 ;icw2
 0029  B0 16				mov al, 16h
 002B  EE				out dx, al
					
 002C  B0 80				mov al, 80h ;icw3
 002E  EE				out dx, al
					
 002F  B0 01				mov al, 01h ;icw4
 0031  EE				out dx, al
					
 0032  B0 FF				mov al, 11111111b ; 8259 mask word
 0034  EE				out dx, al
					
 0035  C3				ret
 0036				initM8259 endp

 0036				initS8259 proc
 0036  BA 0240				mov dx, A0_S8259 ;icw1
 0039  B0 11				mov al, 11h
 003B  EE				out dx, al
					
 003C  BA 0241				mov dx, A1_S8259 ;icw2
 003F  B0 70				mov al, 70h
 0041  EE				out dx, al
					
 0042  B0 07				mov al, 07h ;icw3
 0044  EE				out dx, al
					
 0045  B0 01				mov al, 01h ;icw4
 0047  EE				out dx, al
					
 0048  B0 FF				mov al, 11111111b ; 8259 mask word
 004A  EE				out dx, al
					
 004B  C3				ret
 004C				initS8259 endp

 004C				addCnt proc
 004C  50				push ax
 004D  53				push bx
					
 004E  FE 06 000A R			inc counter
 0052  33 C0				xor ax, ax
 0054  A0 000A R			mov al, counter
 0057  B3 3C				mov bl, 60
 0059  F6 F3				div bl
 005B  88 26 000A R			mov counter, ah
					
 005F  5B				pop bx
 0060  58				pop ax
 0061  C3				ret
 0062				addCnt endp


 0062				sendM8259EOI proc
 0062  50				push ax
 0063  52				push dx
 0064  B0 20				mov al, 20h
 0066  BA 0230				mov dx, A0_M8259 ;中断结束命令
 0069  EE				out dx, al
 006A  5A				pop dx
 006B  58				pop ax
 006C				sendM8259EOI endp

 006C				intHandle_1s proc far
 006C  E8 FFDD				call addCnt
 006F  E8 FFF0				call sendM8259EOI
 0072  FB				sti
 0073  CF				iret
 0074				intHandle_1s endp

 0074				setIntVector proc
 0074  52				push dx
 0075  50				push ax
 0076  52				push dx
 0077  B8 0000				mov ax, 0
 007A  8B D0				mov dx, ax
					
					; set interrupt vector
 007C  BE 0040				mov si, 64  ;; ?
 007F  B8 006C R			mov ax, offset intHandle_1s
 0082  89 04				mov [si], ax
 0084  8C C8				mov ax, cs
 0086  89 44 02				mov [si + 2], ax ; 67
					
					
 0089  BA 0231				mov dx, A1_M8259
 008C  EC				in al, dx ; read
 008D  24 FE				and al, 11111110b ; rm IRQ0
 008F  EE				out dx, al
					
 0090  5A				pop dx 
 0091  58				pop ax 
 0092  5A				pop dx
 0093  C3				ret
 0094				setIntVector endp


 0094				display proc
 0094  33 C0			    xor ax,ax	
 0096  A0 000A R			mov al,counter
 0099  B3 0A				mov bl,10
 009B  F6 F3				div bl ;;counter除以10
 009D  A2 000C R			mov d1,al;;al等于商，故dl为counter的十位上的数；
 00A0  88 26 000B R			mov d0,ah;;ah等于余数，故d0为counter的个位上的数；
					
 00A4  A0 000B R			mov al,d0
 00A7  BB 0000 R			mov bx,offset leds
 00AA  D7				xlat  ;;执行完该指令，al=d0的段码
 00AB  BA 0210				mov dx,pa_8255
 00AE  EE				out dx,al;;将d0的段码输出A口
 00AF  B0 40				mov al,01000000B;对应PC6
 00B1  BA 0212				mov dx,pc_8255
 00B4  EE				out dx,al;;通过C口将PC6设置为1,点亮右边数码管，显示个位数。
 00B5  B0 00				mov al,0
 00B7  EE				out dx,al;;通过C口将PC6设置为0,熄灭右边数码管，不显示个位数。
 00B8  A0 000C R			mov al,d1
 00BB  BB 0000 R			mov bx,offset leds
 00BE  D7				xlat 
 00BF  BA 0210				mov dx,pa_8255
 00C2  EE				out dx,al;;将d1的段码输出A口
 00C3  B0 80				mov al,10000000B;;;对应PC7
 00C5  BA 0212				mov dx,pc_8255
 00C8  EE				out dx,al;;通过C口将PC7设置为1,点亮右二数码管，显示十位数。
 00C9  B0 00				mov al,0
 00CB  EE				out dx,al;;通过C口将PC7设置为0,熄灭右右二数码管，不显示十位数。
 00CC  C3				ret 
 00CD				display endp 
					
 00CD				code ends
				end start
Microsoft (R) Macro Assembler Version 6.11		    11/02/23 16:24:34
three.asm						     Symbols 2 - 1




Segments and Groups:

                N a m e                 Size     Length   Align   Combine Class

DGROUP . . . . . . . . . . . . .	GROUP
_DATA  . . . . . . . . . . . . .	16 Bit	 0000	  Word	  Public  'DATA'	
_TEXT  . . . . . . . . . . . . .	16 Bit	 0000	  Word	  Public  'CODE'	
code . . . . . . . . . . . . . .	16 Bit	 00CD	  Para	  Private 
data . . . . . . . . . . . . . .	16 Bit	 000D	  Para	  Private 


Procedures,  parameters and locals:

                N a m e                 Type     Value    Attr

addCnt . . . . . . . . . . . . .	P Near	 004C	  code	Length= 0016 Private
display  . . . . . . . . . . . .	P Near	 0094	  code	Length= 0039 Private
init8255 . . . . . . . . . . . .	P Near	 0019	  code	Length= 0007 Private
initM8259  . . . . . . . . . . .	P Near	 0020	  code	Length= 0016 Private
initS8259  . . . . . . . . . . .	P Near	 0036	  code	Length= 0016 Private
intHandle_1s . . . . . . . . . .	P Far	 006C	  code	Length= 0008 Private
sendM8259EOI . . . . . . . . . .	P Near	 0062	  code	Length= 000A Private
setIntVector . . . . . . . . . .	P Near	 0074	  code	Length= 0020 Private


Symbols:

                N a m e                 Type     Value    Attr

@CodeSize  . . . . . . . . . . .	Number	 0000h	 
@DataSize  . . . . . . . . . . .	Number	 0000h	 
@Interface . . . . . . . . . . .	Number	 0000h	 
@Model . . . . . . . . . . . . .	Number	 0002h	 
@code  . . . . . . . . . . . . .	Text   	 _TEXT
@data  . . . . . . . . . . . . .	Text   	 DGROUP
@fardata?  . . . . . . . . . . .	Text   	 FAR_BSS
@fardata . . . . . . . . . . . .	Text   	 FAR_DATA
@stack . . . . . . . . . . . . .	Text   	 DGROUP
A0_M8259 . . . . . . . . . . . .	Number	 0230h	 
A0_S8259 . . . . . . . . . . . .	Number	 0240h	 
A1_M8259 . . . . . . . . . . . .	Number	 0231h	 
A1_S8259 . . . . . . . . . . . .	Number	 0241h	 
again  . . . . . . . . . . . . .	L Near	 0013	  code	
counter  . . . . . . . . . . . .	Byte	 000A	  data	
d0 . . . . . . . . . . . . . . .	Byte	 000B	  data	
d1 . . . . . . . . . . . . . . .	Byte	 000C	  data	
kz_8255  . . . . . . . . . . . .	Number	 0213h	 
leds . . . . . . . . . . . . . .	Byte	 0000	  data	
pa_8255  . . . . . . . . . . . .	Number	 0210h	 
pb_8255  . . . . . . . . . . . .	Number	 0211h	 
pc_8255  . . . . . . . . . . . .	Number	 0212h	 
start  . . . . . . . . . . . . .	L Near	 0000	  code	

	   1 Warnings
	   0 Errors
